target datalayout = "e-m:e-p270:32:32-p271:32:32-p272:64:64-i64:64-i128:128-f80:128-n8:16:32:64-S128"
target triple = "x86_64-pc-linux-gnu"

%struct._proto_node = type { ptr, ptr, ptr, ptr, ptr, ptr, ptr }
%struct.tree_data_t = type { ptr, i8, i8, i32, ptr, i32, i32 }

@.str.1024 = private unnamed_addr constant [3 x i8] c"%s\00", align 1

; Function Attrs: null_pointer_is_valid sspstrong uwtable
define internal void @sip_proto_set_format_text(ptr noundef %0, ptr noundef %1, ptr noundef %2, i32 noundef %3, i32 noundef %4) #0 {
  %6 = alloca ptr, align 8
  %7 = alloca ptr, align 8
  %8 = alloca ptr, align 8
  %9 = alloca i32, align 4
  %10 = alloca i32, align 4
  store ptr %0, ptr %6, align 8
  store ptr %1, ptr %7, align 8
  store ptr %2, ptr %8, align 8
  store i32 %3, ptr %9, align 4
  store i32 %4, ptr %10, align 4
  %11 = load ptr, ptr %6, align 8
  %12 = load ptr, ptr %7, align 8
  %13 = icmp ne ptr %11, %12
  br i1 %13, label %14, label %31

14:                                               ; preds = %5
  %15 = load ptr, ptr %7, align 8
  %16 = icmp ne ptr %15, null
  br i1 %16, label %17, label %31

17:                                               ; preds = %14
  %18 = load ptr, ptr %7, align 8
  %19 = getelementptr inbounds nuw %struct._proto_node, ptr %18, i32 0, i32 6
  %20 = load ptr, ptr %19, align 8
  %21 = getelementptr inbounds nuw %struct.tree_data_t, ptr %20, i32 0, i32 1
  %22 = load i8, ptr %21, align 8, !range !12, !noundef !13
  %23 = trunc i8 %22 to i1
  br i1 %23, label %24, label %31

24:                                               ; preds = %17
  %25 = load ptr, ptr %7, align 8
  %26 = call ptr @wmem_packet_scope()
  %27 = load ptr, ptr %8, align 8
  %28 = load i32, ptr %9, align 4
  %29 = load i32, ptr %10, align 4
  %30 = call ptr @tvb_format_text(ptr noundef %26, ptr noundef %27, i32 noundef %28, i32 noundef %29)
  call void (ptr, ptr, ...) @proto_item_set_text(ptr noundef %25, ptr noundef @.str.1024, ptr noundef %30)
  br label %31

31:                                               ; preds = %24, %17, %14, %5
  ret void
}