; Function Attrs: null_pointer_is_valid sspstrong uwtable
define internal fastcc void @sip_proto_set_format_text(ptr noundef readnone captures(address) %0, ptr noundef %1, ptr noundef %2, i32 noundef %3, i32 noundef %4) unnamed_addr #0 {
  %6 = icmp ne ptr %0, %1
  %7 = icmp ne ptr %1, null
  %or.cond = and i1 %6, %7
  br i1 %or.cond, label %8, label %17

8:                                                ; preds = %5
  %9 = getelementptr inbounds nuw i8, ptr %1, i64 48
  %10 = load ptr, ptr %9, align 8
  %11 = getelementptr inbounds nuw i8, ptr %10, i64 8
  %12 = load i8, ptr %11, align 8, !range !12, !noundef !13
  %13 = trunc nuw i8 %12 to i1
  br i1 %13, label %14, label %17

14:                                               ; preds = %8
  %15 = tail call ptr @wmem_packet_scope()
  %16 = tail call ptr @tvb_format_text(ptr noundef %15, ptr noundef %2, i32 noundef %3, i32 noundef %4)
  tail call void (ptr, ptr, ...) @proto_item_set_text(ptr noundef nonnull %1, ptr noundef nonnull @.str.1024, ptr noundef %16)
  br label %17

17:                                               ; preds = %14, %8, %5
  ret void
}